target datalayout = "e-m:e-p270:32:32-p271:32:32-p272:64:64-i64:64-i128:128-f80:128-n8:16:32:64-S128"
target triple = "x86_64-pc-linux-gnu"

%"struct.std::atomic.13" = type { %"struct.std::__atomic_base.14" }
%"struct.std::__atomic_base.14" = type { i64 }
%"struct.std::atomic" = type { %"struct.std::__atomic_base" }
%"struct.std::__atomic_base" = type { i8 }
%"class.tbb::detail::d1::task_group_context" = type { i64, %"struct.std::atomic.4", i8, %"struct.tbb::detail::d1::task_group_context::context_traits", %"struct.std::atomic.6", %"struct.std::atomic.8", %union.anon, ptr, %"struct.tbb::detail::d1::intrusive_list_node", %"struct.std::atomic.9", ptr, i64, [56 x i8] }
%"struct.std::atomic.4" = type { %"struct.std::__atomic_base.5" }
%"struct.std::__atomic_base.5" = type { i32 }
%"struct.tbb::detail::d1::task_group_context::context_traits" = type { i8 }
%"struct.std::atomic.6" = type { %"struct.std::__atomic_base.7" }
%"struct.std::__atomic_base.7" = type { i8 }
%"struct.std::atomic.8" = type { i8 }
%union.anon = type { ptr }
%"struct.tbb::detail::d1::intrusive_list_node" = type { ptr, ptr }
%"struct.std::atomic.9" = type { %"struct.std::__atomic_base.10" }
%"struct.std::__atomic_base.10" = type { ptr }
%"class.tbb::detail::d1::unique_scoped_lock.27" = type { ptr }
%"class.tbb::detail::r1::context_list" = type <{ %"class.tbb::detail::r1::intrusive_list", i8, [7 x i8], %"struct.std::atomic.13", %"class.tbb::detail::d1::mutex", [7 x i8] }>
%"class.tbb::detail::r1::intrusive_list" = type { %"class.tbb::detail::r1::intrusive_list_base" }
%"class.tbb::detail::r1::intrusive_list_base" = type { %"struct.tbb::detail::d1::intrusive_list_node", i64 }
%"class.tbb::detail::d1::mutex" = type { %"class.tbb::detail::d1::waitable_atomic" }
%"class.tbb::detail::d1::waitable_atomic" = type { %"struct.std::atomic" }
%"class.tbb::detail::r1::thread_data" = type { %"struct.tbb::detail::d1::intrusive_list_node", i16, i8, i8, ptr, ptr, ptr, ptr, %"class.tbb::detail::r1::mail_inbox", %"class.tbb::detail::r1::FastRandom", ptr, ptr, ptr, i32, ptr, %"class.tbb::detail::d1::task_group_context" }
%"class.tbb::detail::r1::mail_inbox" = type { ptr }
%"class.tbb::detail::r1::FastRandom" = type { i32, i32 }

; Function Attrs: alwaysinline mustprogress nounwind sspstrong uwtable
define linkonce_odr noundef zeroext i1 @_ZNSt13__atomic_baseIbE8exchangeEbSt12memory_order(ptr noundef nonnull align 1 dereferenceable(1) %0, i1 noundef zeroext %1, i32 noundef %2) #8 comdat align 2 {
  %4 = alloca ptr, align 8
  %5 = alloca i8, align 1
  %6 = alloca i32, align 4
  %7 = alloca i8, align 1
  %8 = alloca i8, align 1
  store ptr %0, ptr %4, align 8, !tbaa !174
  %9 = zext i1 %1 to i8
  store i8 %9, ptr %5, align 1, !tbaa !12
  store i32 %2, ptr %6, align 4, !tbaa !54
  %10 = load ptr, ptr %4, align 8
  %11 = getelementptr inbounds nuw %"struct.std::__atomic_base", ptr %10, i32 0, i32 0
  %12 = load i32, ptr %6, align 4, !tbaa !54
  %13 = load i8, ptr %5, align 1, !tbaa !12, !range !14, !noundef !15
  %14 = trunc i8 %13 to i1
  %15 = zext i1 %14 to i8
  store i8 %15, ptr %7, align 1, !tbaa !12
  switch i32 %12, label %16 [
    i32 1, label %19
    i32 2, label %19
    i32 3, label %22
    i32 4, label %25
    i32 5, label %28
  ]

16:                                               ; preds = %3
  %17 = load i8, ptr %7, align 1
  %18 = atomicrmw xchg ptr %11, i8 %17 monotonic, align 1
  store i8 %18, ptr %8, align 1
  br label %31

19:                                               ; preds = %3, %3
  %20 = load i8, ptr %7, align 1
  %21 = atomicrmw xchg ptr %11, i8 %20 acquire, align 1
  store i8 %21, ptr %8, align 1
  br label %31

22:                                               ; preds = %3
  %23 = load i8, ptr %7, align 1
  %24 = atomicrmw xchg ptr %11, i8 %23 release, align 1
  store i8 %24, ptr %8, align 1
  br label %31

25:                                               ; preds = %3
  %26 = load i8, ptr %7, align 1
  %27 = atomicrmw xchg ptr %11, i8 %26 acq_rel, align 1
  store i8 %27, ptr %8, align 1
  br label %31

28:                                               ; preds = %3
  %29 = load i8, ptr %7, align 1
  %30 = atomicrmw xchg ptr %11, i8 %29 seq_cst, align 1
  store i8 %30, ptr %8, align 1
  br label %31

31:                                               ; preds = %28, %25, %22, %19, %16
  %32 = load i8, ptr %8, align 1, !tbaa !12, !range !14, !noundef !15
  %33 = trunc i8 %32 to i1
  ret i1 %33
}

; Function Attrs: mustprogress nounwind sspstrong uwtable
define linkonce_odr noundef zeroext i1 @_ZNSt6atomicIbE8exchangeEbSt12memory_order(ptr noundef nonnull align 1 dereferenceable(1) %0, i1 noundef zeroext %1, i32 noundef %2) #1 comdat align 2 {
  %4 = alloca ptr, align 8
  %5 = alloca i8, align 1
  %6 = alloca i32, align 4
  store ptr %0, ptr %4, align 8, !tbaa !172
  %7 = zext i1 %1 to i8
  store i8 %7, ptr %5, align 1, !tbaa !12
  store i32 %2, ptr %6, align 4, !tbaa !54
  %8 = load ptr, ptr %4, align 8
  %9 = getelementptr inbounds nuw %"struct.std::atomic", ptr %8, i32 0, i32 0
  %10 = load i8, ptr %5, align 1, !tbaa !12, !range !14, !noundef !15
  %11 = trunc i8 %10 to i1
  %12 = load i32, ptr %6, align 4, !tbaa !54
  %13 = call noundef zeroext i1 @_ZNSt13__atomic_baseIbE8exchangeEbSt12memory_order(ptr noundef nonnull align 1 dereferenceable(1) %9, i1 noundef zeroext %11, i32 noundef %12) #12
  ret i1 %13
}

; Function Attrs: mustprogress sspstrong uwtable
define linkonce_odr void @_ZN3tbb6detail2d115waitable_atomicIbE18notify_one_relaxedEv(ptr noundef nonnull align 1 dereferenceable(1) %0) #6 comdat align 2 {
  %2 = alloca ptr, align 8
  store ptr %0, ptr %2, align 8, !tbaa !164
  %3 = load ptr, ptr %2, align 8
  call void @_ZN3tbb6detail2r121notify_by_address_oneEPv(ptr noundef %3)
  ret void
}

; Function Attrs: mustprogress nounwind sspstrong uwtable
define linkonce_odr noundef zeroext i1 @_ZN3tbb6detail2d115waitable_atomicIbE8exchangeEb(ptr noundef nonnull align 1 dereferenceable(1) %0, i1 noundef zeroext %1) #1 comdat align 2 {
  %3 = alloca ptr, align 8
  %4 = alloca i8, align 1
  store ptr %0, ptr %3, align 8, !tbaa !164
  %5 = zext i1 %1 to i8
  store i8 %5, ptr %4, align 1, !tbaa !12
  %6 = load ptr, ptr %3, align 8
  %7 = getelementptr inbounds nuw %"class.tbb::detail::d1::waitable_atomic", ptr %6, i32 0, i32 0
  %8 = load i8, ptr %4, align 1, !tbaa !12, !range !14, !noundef !15
  %9 = trunc i8 %8 to i1
  %10 = call noundef zeroext i1 @_ZNSt6atomicIbE8exchangeEbSt12memory_order(ptr noundef nonnull align 1 dereferenceable(1) %7, i1 noundef zeroext %9, i32 noundef 5) #12
  ret i1 %10
}

; Function Attrs: inlinehint mustprogress nounwind sspstrong uwtable
define linkonce_odr void @_ZN3tbb6detail2d115call_itt_notifyENS1_11notify_typeEPv(i32 noundef %0, ptr noundef %1) #5 comdat {
  %3 = alloca i32, align 4
  %4 = alloca ptr, align 8
  store i32 %0, ptr %3, align 4, !tbaa !162
  store ptr %1, ptr %4, align 8, !tbaa !39
  ret void
}

; Function Attrs: mustprogress sspstrong uwtable
define linkonce_odr void @_ZN3tbb6detail2d15mutex6unlockEv(ptr noundef nonnull align 1 dereferenceable(1) %0) #6 comdat align 2 {
  %2 = alloca ptr, align 8
  store ptr %0, ptr %2, align 8, !tbaa !151
  %3 = load ptr, ptr %2, align 8
  call void @_ZN3tbb6detail2d115call_itt_notifyENS1_11notify_typeEPv(i32 noundef 3, ptr noundef %3)
  %4 = getelementptr inbounds nuw %"class.tbb::detail::d1::mutex", ptr %3, i32 0, i32 0
  %5 = call noundef zeroext i1 @_ZN3tbb6detail2d115waitable_atomicIbE8exchangeEb(ptr noundef nonnull align 1 dereferenceable(1) %4, i1 noundef zeroext false) #12
  %6 = getelementptr inbounds nuw %"class.tbb::detail::d1::mutex", ptr %3, i32 0, i32 0
  call void @_ZN3tbb6detail2d115waitable_atomicIbE18notify_one_relaxedEv(ptr noundef nonnull align 1 dereferenceable(1) %6)
  ret void
}

; Function Attrs: mustprogress nounwind sspstrong uwtable
define linkonce_odr noundef nonnull align 8 dereferenceable(16) ptr @_ZN3tbb6detail2r114intrusive_listINS0_2d119intrusive_list_nodeEE4nodeERS4_(ptr noundef nonnull align 8 dereferenceable(16) %0) #1 comdat align 2 {
  %2 = alloca ptr, align 8
  store ptr %0, ptr %2, align 8, !tbaa !41
  %3 = load ptr, ptr %2, align 8, !tbaa !41
  ret ptr %3
}

; Function Attrs: mustprogress sspstrong uwtable
define linkonce_odr void @_ZN3tbb6detail2d118unique_scoped_lockINS1_5mutexEE7releaseEv(ptr noundef nonnull align 8 dereferenceable(8) %0) #6 comdat align 2 {
  %2 = alloca ptr, align 8
  store ptr %0, ptr %2, align 8, !tbaa !149
  %3 = load ptr, ptr %2, align 8
  %4 = getelementptr inbounds nuw %"class.tbb::detail::d1::unique_scoped_lock.27", ptr %3, i32 0, i32 0
  %5 = load ptr, ptr %4, align 8, !tbaa !153
  call void @_ZN3tbb6detail2d15mutex6unlockEv(ptr noundef nonnull align 1 dereferenceable(1) %5)
  %6 = getelementptr inbounds nuw %"class.tbb::detail::d1::unique_scoped_lock.27", ptr %3, i32 0, i32 0
  store ptr null, ptr %6, align 8, !tbaa !153
  ret void
}

; Function Attrs: mustprogress nounwind sspstrong uwtable
define linkonce_odr void @_ZNK3tbb6detail2r119intrusive_list_baseINS1_14intrusive_listINS0_2d119intrusive_list_nodeEEES5_E9assert_okEv(ptr noundef nonnull align 8 dereferenceable(24) %0) #1 comdat align 2 {
  %2 = alloca ptr, align 8
  store ptr %0, ptr %2, align 8, !tbaa !155
  ret void
}

; Function Attrs: mustprogress sspstrong uwtable
define linkonce_odr noundef nonnull align 8 dereferenceable(16) ptr @_ZN3tbb6detail2r119intrusive_list_baseINS1_14intrusive_listINS0_2d119intrusive_list_nodeEEES5_E4nodeERS5_(ptr noundef nonnull align 8 dereferenceable(16) %0) #6 comdat align 2 {
  %2 = alloca ptr, align 8
  store ptr %0, ptr %2, align 8, !tbaa !41
  %3 = load ptr, ptr %2, align 8, !tbaa !41
  %4 = call noundef nonnull align 8 dereferenceable(16) ptr @_ZN3tbb6detail2r114intrusive_listINS0_2d119intrusive_list_nodeEE4nodeERS4_(ptr noundef nonnull align 8 dereferenceable(16) %3)
  ret ptr %4
}

; Function Attrs: mustprogress nounwind sspstrong uwtable
define linkonce_odr void @_ZN3tbb6detail2d118unique_scoped_lockINS1_5mutexEED2Ev(ptr noundef nonnull align 8 dereferenceable(8) %0) unnamed_addr #1 comdat align 2 personality ptr @__gxx_personality_v0 {
  %2 = alloca ptr, align 8
  store ptr %0, ptr %2, align 8, !tbaa !149
  %3 = load ptr, ptr %2, align 8
  %4 = getelementptr inbounds nuw %"class.tbb::detail::d1::unique_scoped_lock.27", ptr %3, i32 0, i32 0
  %5 = load ptr, ptr %4, align 8, !tbaa !153
  %6 = icmp ne ptr %5, null
  br i1 %6, label %7, label %9

7:                                                ; preds = %1
  invoke void @_ZN3tbb6detail2d118unique_scoped_lockINS1_5mutexEE7releaseEv(ptr noundef nonnull align 8 dereferenceable(8) %3)
          to label %8 unwind label %10

8:                                                ; preds = %7
  br label %9

9:                                                ; preds = %8, %1
  ret void

10:                                               ; preds = %7
  %11 = landingpad { ptr, i32 }
          catch ptr null
  %12 = extractvalue { ptr, i32 } %11, 0
  call void @__clang_call_terminate(ptr %12) #13
  unreachable
}

; Function Attrs: mustprogress sspstrong uwtable
define linkonce_odr void @_ZN3tbb6detail2r119intrusive_list_baseINS1_14intrusive_listINS0_2d119intrusive_list_nodeEEES5_E10push_frontERS5_(ptr noundef nonnull align 8 dereferenceable(24) %0, ptr noundef nonnull align 8 dereferenceable(16) %1) #6 comdat align 2 {
  %3 = alloca ptr, align 8
  %4 = alloca ptr, align 8
  store ptr %0, ptr %3, align 8, !tbaa !155
  store ptr %1, ptr %4, align 8, !tbaa !41
  %5 = load ptr, ptr %3, align 8
  %6 = getelementptr inbounds nuw %"class.tbb::detail::r1::intrusive_list_base", ptr %5, i32 0, i32 0
  %7 = load ptr, ptr %4, align 8, !tbaa !41
  %8 = call noundef nonnull align 8 dereferenceable(16) ptr @_ZN3tbb6detail2r119intrusive_list_baseINS1_14intrusive_listINS0_2d119intrusive_list_nodeEEES5_E4nodeERS5_(ptr noundef nonnull align 8 dereferenceable(16) %7)
  %9 = getelementptr inbounds nuw %"struct.tbb::detail::d1::intrusive_list_node", ptr %8, i32 0, i32 0
  store ptr %6, ptr %9, align 8, !tbaa !158
  %10 = getelementptr inbounds nuw %"class.tbb::detail::r1::intrusive_list_base", ptr %5, i32 0, i32 0
  %11 = getelementptr inbounds nuw %"struct.tbb::detail::d1::intrusive_list_node", ptr %10, i32 0, i32 1
  %12 = load ptr, ptr %11, align 8, !tbaa !160
  %13 = load ptr, ptr %4, align 8, !tbaa !41
  %14 = call noundef nonnull align 8 dereferenceable(16) ptr @_ZN3tbb6detail2r119intrusive_list_baseINS1_14intrusive_listINS0_2d119intrusive_list_nodeEEES5_E4nodeERS5_(ptr noundef nonnull align 8 dereferenceable(16) %13)
  %15 = getelementptr inbounds nuw %"struct.tbb::detail::d1::intrusive_list_node", ptr %14, i32 0, i32 1
  store ptr %12, ptr %15, align 8, !tbaa !159
  %16 = load ptr, ptr %4, align 8, !tbaa !41
  %17 = call noundef nonnull align 8 dereferenceable(16) ptr @_ZN3tbb6detail2r119intrusive_list_baseINS1_14intrusive_listINS0_2d119intrusive_list_nodeEEES5_E4nodeERS5_(ptr noundef nonnull align 8 dereferenceable(16) %16)
  %18 = getelementptr inbounds nuw %"class.tbb::detail::r1::intrusive_list_base", ptr %5, i32 0, i32 0
  %19 = getelementptr inbounds nuw %"struct.tbb::detail::d1::intrusive_list_node", ptr %18, i32 0, i32 1
  %20 = load ptr, ptr %19, align 8, !tbaa !160
  %21 = getelementptr inbounds nuw %"struct.tbb::detail::d1::intrusive_list_node", ptr %20, i32 0, i32 0
  store ptr %17, ptr %21, align 8, !tbaa !158
  %22 = load ptr, ptr %4, align 8, !tbaa !41
  %23 = call noundef nonnull align 8 dereferenceable(16) ptr @_ZN3tbb6detail2r119intrusive_list_baseINS1_14intrusive_listINS0_2d119intrusive_list_nodeEEES5_E4nodeERS5_(ptr noundef nonnull align 8 dereferenceable(16) %22)
  %24 = getelementptr inbounds nuw %"class.tbb::detail::r1::intrusive_list_base", ptr %5, i32 0, i32 0
  %25 = getelementptr inbounds nuw %"struct.tbb::detail::d1::intrusive_list_node", ptr %24, i32 0, i32 1
  store ptr %23, ptr %25, align 8, !tbaa !160
  %26 = getelementptr inbounds nuw %"class.tbb::detail::r1::intrusive_list_base", ptr %5, i32 0, i32 1
  %27 = load i64, ptr %26, align 8, !tbaa !157
  %28 = add i64 %27, 1
  store i64 %28, ptr %26, align 8, !tbaa !157
  call void @_ZNK3tbb6detail2r119intrusive_list_baseINS1_14intrusive_listINS0_2d119intrusive_list_nodeEEES5_E9assert_okEv(ptr noundef nonnull align 8 dereferenceable(24) %5)
  ret void
}

; Function Attrs: mustprogress sspstrong uwtable
define linkonce_odr void @_ZN3tbb6detail2d118unique_scoped_lockINS1_5mutexEEC2ERS3_(ptr noundef nonnull align 8 dereferenceable(8) %0, ptr noundef nonnull align 1 dereferenceable(1) %1) unnamed_addr #6 comdat align 2 {
  %3 = alloca ptr, align 8
  %4 = alloca ptr, align 8
  store ptr %0, ptr %3, align 8, !tbaa !149
  store ptr %1, ptr %4, align 8, !tbaa !151
  %5 = load ptr, ptr %3, align 8
  %6 = getelementptr inbounds nuw %"class.tbb::detail::d1::unique_scoped_lock.27", ptr %5, i32 0, i32 0
  store ptr null, ptr %6, align 8, !tbaa !153
  %7 = load ptr, ptr %4, align 8, !tbaa !151
  call void @_ZN3tbb6detail2d118unique_scoped_lockINS1_5mutexEE7acquireERS3_(ptr noundef nonnull align 8 dereferenceable(8) %5, ptr noundef nonnull align 1 dereferenceable(1) %7)
  ret void
}

; Function Attrs: mustprogress sspstrong uwtable
define linkonce_odr void @_ZN3tbb6detail2r112context_list10push_frontERNS0_2d119intrusive_list_nodeE(ptr noundef nonnull align 8 dereferenceable(41) %0, ptr noundef nonnull align 8 dereferenceable(16) %1) #6 comdat align 2 personality ptr @__gxx_personality_v0 {
  %3 = alloca ptr, align 8
  %4 = alloca ptr, align 8
  %5 = alloca %"class.tbb::detail::d1::unique_scoped_lock.27", align 8
  %6 = alloca ptr, align 8
  %7 = alloca i32, align 4
  store ptr %0, ptr %3, align 8, !tbaa !40
  store ptr %1, ptr %4, align 8, !tbaa !41
  %8 = load ptr, ptr %3, align 8
  call void @llvm.lifetime.start.p0(i64 8, ptr %5) #12
  %9 = getelementptr inbounds nuw %"class.tbb::detail::r1::context_list", ptr %8, i32 0, i32 4
  call void @_ZN3tbb6detail2d118unique_scoped_lockINS1_5mutexEEC2ERS3_(ptr noundef nonnull align 8 dereferenceable(8) %5, ptr noundef nonnull align 1 dereferenceable(1) %9)
  %10 = load ptr, ptr %4, align 8, !tbaa !41
  invoke void @_ZN3tbb6detail2r119intrusive_list_baseINS1_14intrusive_listINS0_2d119intrusive_list_nodeEEES5_E10push_frontERS5_(ptr noundef nonnull align 8 dereferenceable(24) %8, ptr noundef nonnull align 8 dereferenceable(16) %10)
          to label %11 unwind label %12

11:                                               ; preds = %2
  call void @_ZN3tbb6detail2d118unique_scoped_lockINS1_5mutexEED2Ev(ptr noundef nonnull align 8 dereferenceable(8) %5) #12
  call void @llvm.lifetime.end.p0(i64 8, ptr %5) #12
  ret void

12:                                               ; preds = %2
  %13 = landingpad { ptr, i32 }
          cleanup
  %14 = extractvalue { ptr, i32 } %13, 0
  store ptr %14, ptr %6, align 8
  %15 = extractvalue { ptr, i32 } %13, 1
  store i32 %15, ptr %7, align 4
  call void @_ZN3tbb6detail2d118unique_scoped_lockINS1_5mutexEED2Ev(ptr noundef nonnull align 8 dereferenceable(8) %5) #12
  call void @llvm.lifetime.end.p0(i64 8, ptr %5) #12
  br label %16

16:                                               ; preds = %12
  %17 = load ptr, ptr %6, align 8
  %18 = load i32, ptr %7, align 4
  %19 = insertvalue { ptr, i32 } poison, ptr %17, 0
  %20 = insertvalue { ptr, i32 } %19, i32 %18, 1
  resume { ptr, i32 } %20
}

; Function Attrs: mustprogress sspstrong uwtable
define void @_ZN3tbb6detail2r123task_group_context_impl13register_withERNS0_2d118task_group_contextEPNS1_11thread_dataE(ptr noundef nonnull align 8 dereferenceable(128) %0, ptr noundef %1) #6 align 2 {
  %3 = alloca ptr, align 8
  %4 = alloca ptr, align 8
  store ptr %0, ptr %3, align 8, !tbaa !16
  store ptr %1, ptr %4, align 8, !tbaa !82
  %5 = load ptr, ptr %4, align 8, !tbaa !82
  %6 = getelementptr inbounds nuw %"class.tbb::detail::r1::thread_data", ptr %5, i32 0, i32 12
  %7 = load ptr, ptr %6, align 8, !tbaa !84
  %8 = load ptr, ptr %3, align 8, !tbaa !16
  %9 = getelementptr inbounds nuw %"class.tbb::detail::d1::task_group_context", ptr %8, i32 0, i32 7
  store ptr %7, ptr %9, align 8, !tbaa !18
  %10 = load ptr, ptr %3, align 8, !tbaa !16
  %11 = getelementptr inbounds nuw %"class.tbb::detail::d1::task_group_context", ptr %10, i32 0, i32 7
  %12 = load ptr, ptr %11, align 8, !tbaa !18
  %13 = load ptr, ptr %3, align 8, !tbaa !16
  %14 = getelementptr inbounds nuw %"class.tbb::detail::d1::task_group_context", ptr %13, i32 0, i32 8
  call void @_ZN3tbb6detail2r112context_list10push_frontERNS0_2d119intrusive_list_nodeE(ptr noundef nonnull align 8 dereferenceable(41) %12, ptr noundef nonnull align 8 dereferenceable(16) %14)
  ret void
}