; Function Attrs: mustprogress sspstrong uwtable
define void @_ZN3tbb6detail2r123task_group_context_impl13register_withERNS0_2d118task_group_contextEPNS1_11thread_dataE(ptr noundef nonnull align 8 dereferenceable(128) initializes((24, 48)) %0, ptr noundef readonly captures(none) %1) local_unnamed_addr #8 align 2 personality ptr @__gxx_personality_v0 {
  %3 = alloca %"class.tbb::detail::d1::unique_scoped_lock.27", align 8
  %4 = getelementptr inbounds nuw i8, ptr %1, i64 88
  %5 = load ptr, ptr %4, align 8, !tbaa !57
  %6 = getelementptr inbounds nuw i8, ptr %0, i64 24
  store ptr %5, ptr %6, align 8, !tbaa !12
  %7 = getelementptr inbounds nuw i8, ptr %0, i64 32
  call void @llvm.lifetime.start.p0(i64 8, ptr nonnull %3) #13
  %8 = getelementptr inbounds nuw i8, ptr %5, i64 40
  store ptr null, ptr %3, align 8, !tbaa !32
  call void @_ZN3tbb6detail2d118unique_scoped_lockINS1_5mutexEE7acquireERS3_(ptr noundef nonnull align 8 dereferenceable(8) %3, ptr noundef nonnull align 1 dereferenceable(1) %8)
  store ptr %5, ptr %7, align 8, !tbaa !37
  %9 = getelementptr inbounds nuw i8, ptr %5, i64 8
  %10 = load ptr, ptr %9, align 8, !tbaa !69
  %11 = getelementptr inbounds nuw i8, ptr %0, i64 40
  store ptr %10, ptr %11, align 8, !tbaa !38
  store ptr %7, ptr %10, align 8, !tbaa !37
  store ptr %7, ptr %9, align 8, !tbaa !69
  %12 = getelementptr inbounds nuw i8, ptr %5, i64 16
  %13 = load i64, ptr %12, align 8, !tbaa !35
  %14 = add i64 %13, 1
  store i64 %14, ptr %12, align 8, !tbaa !35
  %15 = load ptr, ptr %3, align 8, !tbaa !32
  %.not.i.i = icmp eq ptr %15, null
  br i1 %.not.i.i, label %_ZN3tbb6detail2r112context_list10push_frontERNS0_2d119intrusive_list_nodeE.exit, label %16

16:                                               ; preds = %2
  %17 = atomicrmw xchg ptr %15, i8 0 seq_cst, align 1
  invoke void @_ZN3tbb6detail2r121notify_by_address_oneEPv(ptr noundef nonnull align 1 dereferenceable(1) %15)
          to label %_ZN3tbb6detail2r112context_list10push_frontERNS0_2d119intrusive_list_nodeE.exit unwind label %18

18:                                               ; preds = %16
  %19 = landingpad { ptr, i32 }
          catch ptr null
  %20 = extractvalue { ptr, i32 } %19, 0
  call void @__clang_call_terminate(ptr %20) #16
  unreachable

_ZN3tbb6detail2r112context_list10push_frontERNS0_2d119intrusive_list_nodeE.exit: ; preds = %2, %16
  call void @llvm.lifetime.end.p0(i64 8, ptr nonnull %3) #13
  ret void
}